(dp0
S'NI'
p1
(lp2
F0.17360961619193319
aF2.2129729343043585
aF3.6888794541139367
aF3.6888794541139367
asS'NS'
p3
(lp4
F0.4700036292457356
aF1.5847452998437288
aF1.9310215365615626
aF3.6888794541139367
asS'NN'
p5
(lp6
F1.031199612400676
aF1.8883863049171266
aF0.8312000579033139
aF2.872118317586814
asS'HD'
p7
(lp8
F2.478385900087564
aF0.1534889050790083
aF3.6888794541139367
aF3.398863658315935
asS'NG'
p9
(lp10
F2.281382885343443
aF2.281382885343443
aF3.2739356020512282
aF0.2772603769893668
as.